target datalayout = "e-m:e-p270:32:32-p271:32:32-p272:64:64-i64:64-i128:128-f80:128-n8:16:32:64-S128"
target triple = "x86_64-pc-linux-gnu"

%struct.mbedtls_asn1_buf = type { i32, i64, ptr }
%struct.mbedtls_asn1_named_data = type { %struct.mbedtls_asn1_buf, %struct.mbedtls_asn1_buf, ptr, i8 }

; Function Attrs: nounwind uwtable
define hidden i32 @mbedtls_x509_set_extension(ptr noundef %0, ptr noundef %1, i64 noundef %2, i32 noundef %3, ptr noundef %4, i64 noundef %5) #0 {
  %7 = alloca i32, align 4
  %8 = alloca ptr, align 8
  %9 = alloca ptr, align 8
  %10 = alloca i64, align 8
  %11 = alloca i32, align 4
  %12 = alloca ptr, align 8
  %13 = alloca i64, align 8
  %14 = alloca ptr, align 8
  %15 = alloca i32, align 4
  store ptr %0, ptr %8, align 8, !tbaa !3
  store ptr %1, ptr %9, align 8, !tbaa !9
  store i64 %2, ptr %10, align 8, !tbaa !14
  store i32 %3, ptr %11, align 4, !tbaa !11
  store ptr %4, ptr %12, align 8, !tbaa !9
  store i64 %5, ptr %13, align 8, !tbaa !14
  call void @llvm.lifetime.start.p0(i64 8, ptr %14) #7
  %16 = load i64, ptr %13, align 8, !tbaa !14
  %17 = icmp ugt i64 %16, -2
  br i1 %17, label %18, label %19

18:                                               ; preds = %6
  store i32 -10240, ptr %7, align 4
  store i32 1, ptr %15, align 4
  br label %43

19:                                               ; preds = %6
  %20 = load ptr, ptr %8, align 8, !tbaa !3
  %21 = load ptr, ptr %9, align 8, !tbaa !9
  %22 = load i64, ptr %10, align 8, !tbaa !14
  %23 = load i64, ptr %13, align 8, !tbaa !14
  %24 = add i64 %23, 1
  %25 = call ptr @mbedtls_asn1_store_named_data(ptr noundef %20, ptr noundef %21, i64 noundef %22, ptr noundef null, i64 noundef %24)
  store ptr %25, ptr %14, align 8, !tbaa !23
  %26 = icmp eq ptr %25, null
  br i1 %26, label %27, label %28

27:                                               ; preds = %19
  store i32 -10368, ptr %7, align 4
  store i32 1, ptr %15, align 4
  br label %43

28:                                               ; preds = %19
  %29 = load i32, ptr %11, align 4, !tbaa !11
  %30 = trunc i32 %29 to i8
  %31 = load ptr, ptr %14, align 8, !tbaa !23
  %32 = getelementptr inbounds nuw %struct.mbedtls_asn1_named_data, ptr %31, i32 0, i32 1
  %33 = getelementptr inbounds nuw %struct.mbedtls_asn1_buf, ptr %32, i32 0, i32 2
  %34 = load ptr, ptr %33, align 8, !tbaa !40
  %35 = getelementptr inbounds i8, ptr %34, i64 0
  store i8 %30, ptr %35, align 1, !tbaa !16
  %36 = load ptr, ptr %14, align 8, !tbaa !23
  %37 = getelementptr inbounds nuw %struct.mbedtls_asn1_named_data, ptr %36, i32 0, i32 1
  %38 = getelementptr inbounds nuw %struct.mbedtls_asn1_buf, ptr %37, i32 0, i32 2
  %39 = load ptr, ptr %38, align 8, !tbaa !40
  %40 = getelementptr inbounds i8, ptr %39, i64 1
  %41 = load ptr, ptr %12, align 8, !tbaa !9
  %42 = load i64, ptr %13, align 8, !tbaa !14
  call void @llvm.memcpy.p0.p0.i64(ptr align 1 %40, ptr align 1 %41, i64 %42, i1 false)
  store i32 0, ptr %7, align 4
  store i32 1, ptr %15, align 4
  br label %43

43:                                               ; preds = %28, %27, %18
  call void @llvm.lifetime.end.p0(i64 8, ptr %14) #7
  %44 = load i32, ptr %7, align 4
  ret i32 %44
}