; Function Attrs: nounwind uwtable
define hidden range(i32 -10368, 1) i32 @mbedtls_x509_set_extension(ptr noundef %0, ptr noundef %1, i64 noundef %2, i32 noundef %3, ptr noundef readonly captures(none) %4, i64 noundef %5) local_unnamed_addr #0 {
  %7 = icmp eq i64 %5, -1
  br i1 %7, label %18, label %8

8:                                                ; preds = %6
  %9 = add nuw i64 %5, 1
  %10 = tail call ptr @mbedtls_asn1_store_named_data(ptr noundef %0, ptr noundef %1, i64 noundef %2, ptr noundef null, i64 noundef %9) #10
  %11 = icmp eq ptr %10, null
  br i1 %11, label %18, label %12

12:                                               ; preds = %8
  %13 = trunc i32 %3 to i8
  %14 = getelementptr inbounds nuw i8, ptr %10, i64 40
  %15 = load ptr, ptr %14, align 8, !tbaa !30
  store i8 %13, ptr %15, align 1, !tbaa !7
  %16 = load ptr, ptr %14, align 8, !tbaa !30
  %17 = getelementptr inbounds nuw i8, ptr %16, i64 1
  tail call void @llvm.memcpy.p0.p0.i64(ptr nonnull align 1 %17, ptr align 1 %4, i64 %5, i1 false)
  br label %18

18:                                               ; preds = %8, %6, %12
  %.0 = phi i32 [ 0, %12 ], [ -10240, %6 ], [ -10368, %8 ]
  ret i32 %.0
}